target datalayout = "e-m:e-p270:32:32-p271:32:32-p272:64:64-i64:64-i128:128-f80:128-n8:16:32:64-S128"
target triple = "x86_64-pc-linux-gnu"

; Function Attrs: nounwind uwtable
define i64 @SUNDlsMat_densePOTRF(ptr noundef %0, i64 noundef %1) #0 {
  %3 = alloca i64, align 8
  %4 = alloca ptr, align 8
  %5 = alloca i64, align 8
  %6 = alloca ptr, align 8
  %7 = alloca ptr, align 8
  %8 = alloca double, align 8
  %9 = alloca i64, align 8
  %10 = alloca i64, align 8
  %11 = alloca i64, align 8
  %12 = alloca i32, align 4
  store ptr %0, ptr %4, align 8, !tbaa !18
  store i64 %1, ptr %5, align 8, !tbaa !19
  call void @llvm.lifetime.start.p0(i64 8, ptr %6) #4
  call void @llvm.lifetime.start.p0(i64 8, ptr %7) #4
  call void @llvm.lifetime.start.p0(i64 8, ptr %8) #4
  call void @llvm.lifetime.start.p0(i64 8, ptr %9) #4
  call void @llvm.lifetime.start.p0(i64 8, ptr %10) #4
  call void @llvm.lifetime.start.p0(i64 8, ptr %11) #4
  store i64 0, ptr %10, align 8, !tbaa !19
  br label %13

13:                                               ; preds = %97, %2
  %14 = load i64, ptr %10, align 8, !tbaa !19
  %15 = load i64, ptr %5, align 8, !tbaa !19
  %16 = icmp slt i64 %14, %15
  br i1 %16, label %17, label %100

17:                                               ; preds = %13
  %18 = load ptr, ptr %4, align 8, !tbaa !18
  %19 = load i64, ptr %10, align 8, !tbaa !19
  %20 = getelementptr inbounds ptr, ptr %18, i64 %19
  %21 = load ptr, ptr %20, align 8, !tbaa !20
  store ptr %21, ptr %6, align 8, !tbaa !20
  %22 = load i64, ptr %10, align 8, !tbaa !19
  %23 = icmp sgt i64 %22, 0
  br i1 %23, label %24, label %62

24:                                               ; preds = %17
  %25 = load i64, ptr %10, align 8, !tbaa !19
  store i64 %25, ptr %9, align 8, !tbaa !19
  br label %26

26:                                               ; preds = %58, %24
  %27 = load i64, ptr %9, align 8, !tbaa !19
  %28 = load i64, ptr %5, align 8, !tbaa !19
  %29 = icmp slt i64 %27, %28
  br i1 %29, label %30, label %61

30:                                               ; preds = %26
  store i64 0, ptr %11, align 8, !tbaa !19
  br label %31

31:                                               ; preds = %54, %30
  %32 = load i64, ptr %11, align 8, !tbaa !19
  %33 = load i64, ptr %10, align 8, !tbaa !19
  %34 = icmp slt i64 %32, %33
  br i1 %34, label %35, label %57

35:                                               ; preds = %31
  %36 = load ptr, ptr %4, align 8, !tbaa !18
  %37 = load i64, ptr %11, align 8, !tbaa !19
  %38 = getelementptr inbounds ptr, ptr %36, i64 %37
  %39 = load ptr, ptr %38, align 8, !tbaa !20
  store ptr %39, ptr %7, align 8, !tbaa !20
  %40 = load ptr, ptr %7, align 8, !tbaa !20
  %41 = load i64, ptr %9, align 8, !tbaa !19
  %42 = getelementptr inbounds double, ptr %40, i64 %41
  %43 = load double, ptr %42, align 8, !tbaa !21
  %44 = load ptr, ptr %7, align 8, !tbaa !20
  %45 = load i64, ptr %10, align 8, !tbaa !19
  %46 = getelementptr inbounds double, ptr %44, i64 %45
  %47 = load double, ptr %46, align 8, !tbaa !21
  %48 = load ptr, ptr %6, align 8, !tbaa !20
  %49 = load i64, ptr %9, align 8, !tbaa !19
  %50 = getelementptr inbounds double, ptr %48, i64 %49
  %51 = load double, ptr %50, align 8, !tbaa !21
  %52 = fneg double %43
  %53 = call double @llvm.fmuladd.f64(double %52, double %47, double %51)
  store double %53, ptr %50, align 8, !tbaa !21
  br label %54

54:                                               ; preds = %35
  %55 = load i64, ptr %11, align 8, !tbaa !19
  %56 = add nsw i64 %55, 1
  store i64 %56, ptr %11, align 8, !tbaa !19
  br label %31

57:                                               ; preds = %31
  br label %58

58:                                               ; preds = %57
  %59 = load i64, ptr %9, align 8, !tbaa !19
  %60 = add nsw i64 %59, 1
  store i64 %60, ptr %9, align 8, !tbaa !19
  br label %26

61:                                               ; preds = %26
  br label %62

62:                                               ; preds = %61, %17
  %63 = load ptr, ptr %6, align 8, !tbaa !20
  %64 = load i64, ptr %10, align 8, !tbaa !19
  %65 = getelementptr inbounds double, ptr %63, i64 %64
  %66 = load double, ptr %65, align 8, !tbaa !21
  store double %66, ptr %8, align 8, !tbaa !21
  %67 = load double, ptr %8, align 8, !tbaa !21
  %68 = fcmp ole double %67, 0.000000e+00
  br i1 %68, label %69, label %72

69:                                               ; preds = %62
  %70 = load i64, ptr %10, align 8, !tbaa !19
  %71 = add nsw i64 %70, 1
  store i64 %71, ptr %3, align 8
  store i32 1, ptr %12, align 4
  br label %101

72:                                               ; preds = %62
  %73 = load double, ptr %8, align 8, !tbaa !21
  %74 = fcmp ole double %73, 0.000000e+00
  br i1 %74, label %75, label %76

75:                                               ; preds = %72
  br label %79

76:                                               ; preds = %72
  %77 = load double, ptr %8, align 8, !tbaa !21
  %78 = call double @sqrt(double noundef %77) #4, !tbaa !23
  br label %79

79:                                               ; preds = %76, %75
  %80 = phi double [ 0.000000e+00, %75 ], [ %78, %76 ]
  store double %80, ptr %8, align 8, !tbaa !21
  %81 = load i64, ptr %10, align 8, !tbaa !19
  store i64 %81, ptr %9, align 8, !tbaa !19
  br label %82

82:                                               ; preds = %93, %79
  %83 = load i64, ptr %9, align 8, !tbaa !19
  %84 = load i64, ptr %5, align 8, !tbaa !19
  %85 = icmp slt i64 %83, %84
  br i1 %85, label %86, label %96

86:                                               ; preds = %82
  %87 = load double, ptr %8, align 8, !tbaa !21
  %88 = load ptr, ptr %6, align 8, !tbaa !20
  %89 = load i64, ptr %9, align 8, !tbaa !19
  %90 = getelementptr inbounds double, ptr %88, i64 %89
  %91 = load double, ptr %90, align 8, !tbaa !21
  %92 = fdiv double %91, %87
  store double %92, ptr %90, align 8, !tbaa !21
  br label %93

93:                                               ; preds = %86
  %94 = load i64, ptr %9, align 8, !tbaa !19
  %95 = add nsw i64 %94, 1
  store i64 %95, ptr %9, align 8, !tbaa !19
  br label %82

96:                                               ; preds = %82
  br label %97

97:                                               ; preds = %96
  %98 = load i64, ptr %10, align 8, !tbaa !19
  %99 = add nsw i64 %98, 1
  store i64 %99, ptr %10, align 8, !tbaa !19
  br label %13

100:                                              ; preds = %13
  store i64 0, ptr %3, align 8
  store i32 1, ptr %12, align 4
  br label %101

101:                                              ; preds = %100, %69
  call void @llvm.lifetime.end.p0(i64 8, ptr %11) #4
  call void @llvm.lifetime.end.p0(i64 8, ptr %10) #4
  call void @llvm.lifetime.end.p0(i64 8, ptr %9) #4
  call void @llvm.lifetime.end.p0(i64 8, ptr %8) #4
  call void @llvm.lifetime.end.p0(i64 8, ptr %7) #4
  call void @llvm.lifetime.end.p0(i64 8, ptr %6) #4
  %102 = load i64, ptr %3, align 8
  ret i64 %102
}