; Function Attrs: nofree nounwind memory(readwrite, inaccessiblemem: write) uwtable
define i64 @SUNDlsMat_densePOTRF(ptr noundef readonly captures(none) %0, i64 noundef %1) local_unnamed_addr #2 {
  %3 = icmp sgt i64 %1, 0
  br i1 %3, label %.lr.ph47, label %.loopexit40

.lr.ph47:                                         ; preds = %2, %._crit_edge
  %.03445 = phi i64 [ %30, %._crit_edge ], [ 0, %2 ]
  %4 = getelementptr inbounds nuw ptr, ptr %0, i64 %.03445
  %5 = load ptr, ptr %4, align 8, !tbaa !14
  %.not.not = icmp eq i64 %.03445, 0
  br i1 %.not.not, label %.loopexit, label %.preheader

.preheader:                                       ; preds = %.lr.ph47, %18
  %.03543 = phi i64 [ %19, %18 ], [ %.03445, %.lr.ph47 ]
  %6 = getelementptr inbounds nuw double, ptr %5, i64 %.03543
  %.promoted = load double, ptr %6, align 8, !tbaa !15
  br label %7

7:                                                ; preds = %.preheader, %7
  %.042 = phi i64 [ 0, %.preheader ], [ %17, %7 ]
  %8 = phi double [ %.promoted, %.preheader ], [ %16, %7 ]
  %9 = getelementptr inbounds nuw ptr, ptr %0, i64 %.042
  %10 = load ptr, ptr %9, align 8, !tbaa !14
  %11 = getelementptr inbounds nuw double, ptr %10, i64 %.03543
  %12 = load double, ptr %11, align 8, !tbaa !15
  %13 = getelementptr inbounds nuw double, ptr %10, i64 %.03445
  %14 = load double, ptr %13, align 8, !tbaa !15
  %15 = fneg double %12
  %16 = tail call double @llvm.fmuladd.f64(double %15, double %14, double %8)
  store double %16, ptr %6, align 8, !tbaa !15
  %17 = add nuw nsw i64 %.042, 1
  %exitcond.not = icmp eq i64 %17, %.03445
  br i1 %exitcond.not, label %18, label %7

18:                                               ; preds = %7
  %19 = add nuw nsw i64 %.03543, 1
  %exitcond49.not = icmp eq i64 %19, %1
  br i1 %exitcond49.not, label %.loopexit, label %.preheader

.loopexit:                                        ; preds = %18, %.lr.ph47
  %20 = getelementptr inbounds nuw double, ptr %5, i64 %.03445
  %21 = load double, ptr %20, align 8, !tbaa !15
  %22 = fcmp ugt double %21, 0.000000e+00
  br i1 %22, label %.lr.ph.preheader, label %23

23:                                               ; preds = %.loopexit
  %24 = add nuw nsw i64 %.03445, 1
  br label %.loopexit40

.lr.ph.preheader:                                 ; preds = %.loopexit
  %25 = tail call double @sqrt(double noundef %21) #6, !tbaa !18
  br label %.lr.ph

.lr.ph:                                           ; preds = %.lr.ph.preheader, %.lr.ph
  %.144 = phi i64 [ %29, %.lr.ph ], [ %.03445, %.lr.ph.preheader ]
  %26 = getelementptr inbounds nuw double, ptr %5, i64 %.144
  %27 = load double, ptr %26, align 8, !tbaa !15
  %28 = fdiv double %27, %25
  store double %28, ptr %26, align 8, !tbaa !15
  %29 = add nuw nsw i64 %.144, 1
  %exitcond50.not = icmp eq i64 %29, %1
  br i1 %exitcond50.not, label %._crit_edge, label %.lr.ph

._crit_edge:                                      ; preds = %.lr.ph
  %30 = add nuw nsw i64 %.03445, 1
  %exitcond51.not = icmp eq i64 %30, %1
  br i1 %exitcond51.not, label %.loopexit40, label %.lr.ph47

.loopexit40:                                      ; preds = %._crit_edge, %2, %23
  %.036 = phi i64 [ %24, %23 ], [ 0, %2 ], [ 0, %._crit_edge ]
  ret i64 %.036
}